; Function Attrs: mustprogress uwtable
define hidden void @_ZN7testing8internal27PrettyUnitTestResultPrinter16OnTestPartResultERKNS_14TestPartResultE(ptr nonnull readnone align 8 captures(none) %0, ptr noundef nonnull readonly align 8 captures(none) dereferenceable(112) %1) unnamed_addr #4 align 2 personality ptr @__gxx_personality_v0 {
  %3 = alloca %"class.std::__cxx11::basic_string", align 8
  %4 = load i32, ptr %1, align 8, !tbaa !208
  %5 = icmp eq i32 %4, 0
  br i1 %5, label %18, label %6

6:                                                ; preds = %2
  call void @llvm.lifetime.start.p0(i64 32, ptr nonnull %3) #56
  call fastcc void @_ZN7testing8internalL27PrintTestPartResultToStringB5cxx11ERKNS_14TestPartResultE(ptr dead_on_unwind noalias writable align 8 %3, ptr noundef nonnull readonly align 8 dereferenceable(112) %1)
  %7 = load ptr, ptr %3, align 8, !tbaa !3
  %puts.i = call i32 @puts(ptr nonnull dereferenceable(1) %7)
  %8 = load ptr, ptr @stdout, align 8, !tbaa !28
  %9 = call i32 @fflush(ptr noundef %8)
  %10 = load ptr, ptr %3, align 8, !tbaa !3
  %11 = getelementptr inbounds nuw i8, ptr %3, i64 16
  %12 = icmp eq ptr %10, %11
  br i1 %12, label %_ZNKSt7__cxx1112basic_stringIcSt11char_traitsIcESaIcEE11_M_is_localEv.exit.thread.i.i.i, label %_ZNKSt7__cxx1112basic_stringIcSt11char_traitsIcESaIcEE11_M_is_localEv.exit.i.i.i

_ZNKSt7__cxx1112basic_stringIcSt11char_traitsIcESaIcEE11_M_is_localEv.exit.thread.i.i.i: ; preds = %6
  %13 = getelementptr inbounds nuw i8, ptr %3, i64 8
  %14 = load i64, ptr %13, align 8, !tbaa !11
  %15 = icmp ult i64 %14, 16
  call void @llvm.assume(i1 %15)
  br label %_ZN7testing8internalL19PrintTestPartResultERKNS_14TestPartResultE.exit

_ZNKSt7__cxx1112basic_stringIcSt11char_traitsIcESaIcEE11_M_is_localEv.exit.i.i.i: ; preds = %6
  call void @_ZdlPv(ptr noundef %10) #57
  br label %_ZN7testing8internalL19PrintTestPartResultERKNS_14TestPartResultE.exit

_ZN7testing8internalL19PrintTestPartResultERKNS_14TestPartResultE.exit: ; preds = %_ZNKSt7__cxx1112basic_stringIcSt11char_traitsIcESaIcEE11_M_is_localEv.exit.thread.i.i.i, %_ZNKSt7__cxx1112basic_stringIcSt11char_traitsIcESaIcEE11_M_is_localEv.exit.i.i.i
  call void @llvm.lifetime.end.p0(i64 32, ptr nonnull %3) #56
  %16 = load ptr, ptr @stdout, align 8, !tbaa !28
  %17 = call i32 @fflush(ptr noundef %16)
  br label %18

18:                                               ; preds = %2, %_ZN7testing8internalL19PrintTestPartResultERKNS_14TestPartResultE.exit
  ret void
}